; Function Attrs: mustprogress uwtable
define dso_local void @_ZN8FileLine13lineDirectiveEPKcRi(ptr noundef nonnull align 8 dereferenceable(40) %0, ptr noundef %1, ptr nocapture noundef nonnull align 4 dereferenceable(4) %2) local_unnamed_addr #3 align 2 personality ptr @__gxx_personality_v0 {
  %4 = alloca %"class.std::__cxx11::basic_string", align 8
  %5 = alloca i32, align 4
  call void @_ZNSt7__cxx1112basic_stringIcSt11char_traitsIcESaIcEEC1Ev(ptr noundef nonnull align 8 dereferenceable(32) %4) #20
  store i32 -1, ptr %5, align 4
  invoke void @_ZN8FileLine18lineDirectiveParseEPKcRNSt7__cxx1112basic_stringIcSt11char_traitsIcESaIcEEERiS9_(ptr noundef nonnull align 8 dereferenceable(40) %0, ptr noundef %1, ptr noundef nonnull align 8 dereferenceable(32) %4, ptr noundef nonnull align 4 dereferenceable(4) %5, ptr noundef nonnull align 4 dereferenceable(4) %2)
          to label %6 unwind label %26

6:                                                ; preds = %3
  %7 = load i32, ptr %2, align 4
  %.not = icmp eq i32 %7, -1
  br i1 %.not, label %28, label %8

8:                                                ; preds = %6
  %9 = load atomic i8, ptr @_ZGVZN8FileLine9singletonEvE1s acquire, align 8
  %10 = icmp eq i8 %9, 0
  br i1 %10, label %11, label %_ZN8FileLine9singletonEv.exit.i, !prof !90

11:                                               ; preds = %8
  %12 = call i32 @__cxa_guard_acquire(ptr nonnull @_ZGVZN8FileLine9singletonEvE1s) #20
  %.not.i.i = icmp eq i32 %12, 0
  br i1 %.not.i.i, label %_ZN8FileLine9singletonEv.exit.i, label %13

13:                                               ; preds = %11
  invoke void @_ZN17FileLineSingletonC2Ev(ptr noundef nonnull align 8 dereferenceable(328) @_ZZN8FileLine9singletonEvE1s)
          to label %14 unwind label %16

14:                                               ; preds = %13
  %15 = call i32 @__cxa_atexit(ptr nonnull @_ZN17FileLineSingletonD2Ev, ptr nonnull @_ZZN8FileLine9singletonEvE1s, ptr nonnull @__dso_handle) #20
  call void @__cxa_guard_release(ptr nonnull @_ZGVZN8FileLine9singletonEvE1s) #20
  br label %_ZN8FileLine9singletonEv.exit.i

16:                                               ; preds = %13
  %17 = landingpad { ptr, i32 }
          cleanup
  call void @__cxa_guard_abort(ptr nonnull @_ZGVZN8FileLine9singletonEvE1s) #20
  br label %.body

_ZN8FileLine9singletonEv.exit.i:                  ; preds = %14, %11, %8
  %18 = invoke noundef zeroext i16 @_ZN17FileLineSingleton12nameToNumberERKNSt7__cxx1112basic_stringIcSt11char_traitsIcESaIcEEE(ptr noundef nonnull align 8 dereferenceable(328) @_ZZN8FileLine9singletonEvE1s, ptr noundef nonnull align 8 dereferenceable(32) %4)
          to label %19 unwind label %26

19:                                               ; preds = %_ZN8FileLine9singletonEv.exit.i
  %20 = getelementptr inbounds i8, ptr %0, i64 2
  store i16 %18, ptr %20, align 2
  %21 = load i32, ptr %5, align 4
  %22 = getelementptr inbounds i8, ptr %0, i64 8
  store i32 %21, ptr %22, align 8
  %23 = getelementptr inbounds i8, ptr %0, i64 16
  store i32 %21, ptr %23, align 8
  %24 = getelementptr inbounds i8, ptr %0, i64 20
  store i32 1, ptr %24, align 4
  %25 = getelementptr inbounds i8, ptr %0, i64 12
  store i32 1, ptr %25, align 4
  br label %39

26:                                               ; preds = %_ZN8FileLine9singletonEv.exit.i, %3
  %27 = landingpad { ptr, i32 }
          cleanup
  br label %.body

.body:                                            ; preds = %16, %26
  %eh.lpad-body = phi { ptr, i32 } [ %27, %26 ], [ %17, %16 ]
  call void @_ZNSt7__cxx1112basic_stringIcSt11char_traitsIcESaIcEED1Ev(ptr noundef nonnull align 8 dereferenceable(32) %4) #20
  resume { ptr, i32 } %eh.lpad-body

28:                                               ; preds = %6
  %29 = getelementptr inbounds i8, ptr %0, i64 16
  %30 = load i32, ptr %29, align 8
  %31 = add nsw i32 %30, 1
  store i32 %31, ptr %29, align 8
  %32 = getelementptr inbounds i8, ptr %0, i64 20
  store i32 1, ptr %32, align 4
  %33 = getelementptr inbounds i8, ptr %0, i64 4
  %34 = load i32, ptr %33, align 4
  %35 = and i32 %34, -2
  %36 = add i32 %35, 2
  %37 = and i32 %34, 1
  %38 = or disjoint i32 %36, %37
  store i32 %38, ptr %33, align 4
  br label %39

39:                                               ; preds = %28, %19
  call void @_ZNSt7__cxx1112basic_stringIcSt11char_traitsIcESaIcEED1Ev(ptr noundef nonnull align 8 dereferenceable(32) %4) #20
  ret void
}